target datalayout = "e-m:e-p270:32:32-p271:32:32-p272:64:64-i64:64-i128:128-f80:128-n8:16:32:64-S128"
target triple = "x86_64-pc-linux-gnu"

%struct.TuplesortPublic = type { ptr, ptr, ptr, ptr, ptr, ptr, ptr, ptr, ptr, i8, i32, ptr, ptr, i32, i8, ptr }
%struct.SortSupportData = type { ptr, i32, i8, i8, i16, ptr, ptr, i8, ptr, ptr, ptr }
%struct.HeapTupleData = type { i32, %struct.ItemPointerData, i32, ptr }
%struct.ItemPointerData = type { %struct.BlockIdData, i16 }
%struct.BlockIdData = type { i16, i16 }
%struct.SortTuple = type { ptr, i64, i8, i32 }
%struct.MinimalTupleData = type { i32, [6 x i8], i16, i16, i8, [0 x i8] }

; Function Attrs: inlinehint nounwind uwtable
define internal i32 @ApplySortComparator(i64 noundef %0, i1 noundef zeroext %1, i64 noundef %2, i1 noundef zeroext %3, ptr noundef %4) #3 {
  %6 = alloca i64, align 8
  %7 = alloca i8, align 1
  %8 = alloca i64, align 8
  %9 = alloca i8, align 1
  %10 = alloca ptr, align 8
  %11 = alloca i32, align 4
  store i64 %0, ptr %6, align 8
  %12 = zext i1 %1 to i8
  store i8 %12, ptr %7, align 1
  store i64 %2, ptr %8, align 8
  %13 = zext i1 %3 to i8
  store i8 %13, ptr %9, align 1
  store ptr %4, ptr %10, align 8
  call void @llvm.lifetime.start.p0(i64 4, ptr %11) #6
  %14 = load i8, ptr %7, align 1, !range !4, !noundef !5
  %15 = trunc i8 %14 to i1
  br i1 %15, label %16, label %29

16:                                               ; preds = %5
  %17 = load i8, ptr %9, align 1, !range !4, !noundef !5
  %18 = trunc i8 %17 to i1
  br i1 %18, label %19, label %20

19:                                               ; preds = %16
  store i32 0, ptr %11, align 4
  br label %28

20:                                               ; preds = %16
  %21 = load ptr, ptr %10, align 8
  %22 = getelementptr inbounds nuw %struct.SortSupportData, ptr %21, i32 0, i32 3
  %23 = load i8, ptr %22, align 1, !range !4, !noundef !5
  %24 = trunc i8 %23 to i1
  br i1 %24, label %25, label %26

25:                                               ; preds = %20
  store i32 -1, ptr %11, align 4
  br label %27

26:                                               ; preds = %20
  store i32 1, ptr %11, align 4
  br label %27

27:                                               ; preds = %26, %25
  br label %28

28:                                               ; preds = %27, %19
  br label %63

29:                                               ; preds = %5
  %30 = load i8, ptr %9, align 1, !range !4, !noundef !5
  %31 = trunc i8 %30 to i1
  br i1 %31, label %32, label %40

32:                                               ; preds = %29
  %33 = load ptr, ptr %10, align 8
  %34 = getelementptr inbounds nuw %struct.SortSupportData, ptr %33, i32 0, i32 3
  %35 = load i8, ptr %34, align 1, !range !4, !noundef !5
  %36 = trunc i8 %35 to i1
  br i1 %36, label %37, label %38

37:                                               ; preds = %32
  store i32 1, ptr %11, align 4
  br label %39

38:                                               ; preds = %32
  store i32 -1, ptr %11, align 4
  br label %39

39:                                               ; preds = %38, %37
  br label %62

40:                                               ; preds = %29
  %41 = load ptr, ptr %10, align 8
  %42 = getelementptr inbounds nuw %struct.SortSupportData, ptr %41, i32 0, i32 6
  %43 = load ptr, ptr %42, align 8
  %44 = load i64, ptr %6, align 8
  %45 = load i64, ptr %8, align 8
  %46 = load ptr, ptr %10, align 8
  %47 = call i32 %43(i64 noundef %44, i64 noundef %45, ptr noundef %46)
  store i32 %47, ptr %11, align 4
  %48 = load ptr, ptr %10, align 8
  %49 = getelementptr inbounds nuw %struct.SortSupportData, ptr %48, i32 0, i32 2
  %50 = load i8, ptr %49, align 4, !range !4, !noundef !5
  %51 = trunc i8 %50 to i1
  br i1 %51, label %52, label %61

52:                                               ; preds = %40
  %53 = load i32, ptr %11, align 4
  %54 = icmp slt i32 %53, 0
  br i1 %54, label %55, label %56

55:                                               ; preds = %52
  br label %59

56:                                               ; preds = %52
  %57 = load i32, ptr %11, align 4
  %58 = sub i32 0, %57
  br label %59

59:                                               ; preds = %56, %55
  %60 = phi i32 [ 1, %55 ], [ %58, %56 ]
  store i32 %60, ptr %11, align 4
  br label %61

61:                                               ; preds = %59, %40
  br label %62

62:                                               ; preds = %61, %39
  br label %63

63:                                               ; preds = %62, %28
  %64 = load i32, ptr %11, align 4
  call void @llvm.lifetime.end.p0(i64 4, ptr %11) #6
  ret i32 %64
}

; Function Attrs: inlinehint nounwind uwtable
define internal i32 @ApplySortAbbrevFullComparator(i64 noundef %0, i1 noundef zeroext %1, i64 noundef %2, i1 noundef zeroext %3, ptr noundef %4) #3 {
  %6 = alloca i64, align 8
  %7 = alloca i8, align 1
  %8 = alloca i64, align 8
  %9 = alloca i8, align 1
  %10 = alloca ptr, align 8
  %11 = alloca i32, align 4
  store i64 %0, ptr %6, align 8
  %12 = zext i1 %1 to i8
  store i8 %12, ptr %7, align 1
  store i64 %2, ptr %8, align 8
  %13 = zext i1 %3 to i8
  store i8 %13, ptr %9, align 1
  store ptr %4, ptr %10, align 8
  call void @llvm.lifetime.start.p0(i64 4, ptr %11) #6
  %14 = load i8, ptr %7, align 1, !range !4, !noundef !5
  %15 = trunc i8 %14 to i1
  br i1 %15, label %16, label %29

16:                                               ; preds = %5
  %17 = load i8, ptr %9, align 1, !range !4, !noundef !5
  %18 = trunc i8 %17 to i1
  br i1 %18, label %19, label %20

19:                                               ; preds = %16
  store i32 0, ptr %11, align 4
  br label %28

20:                                               ; preds = %16
  %21 = load ptr, ptr %10, align 8
  %22 = getelementptr inbounds nuw %struct.SortSupportData, ptr %21, i32 0, i32 3
  %23 = load i8, ptr %22, align 1, !range !4, !noundef !5
  %24 = trunc i8 %23 to i1
  br i1 %24, label %25, label %26

25:                                               ; preds = %20
  store i32 -1, ptr %11, align 4
  br label %27

26:                                               ; preds = %20
  store i32 1, ptr %11, align 4
  br label %27

27:                                               ; preds = %26, %25
  br label %28

28:                                               ; preds = %27, %19
  br label %63

29:                                               ; preds = %5
  %30 = load i8, ptr %9, align 1, !range !4, !noundef !5
  %31 = trunc i8 %30 to i1
  br i1 %31, label %32, label %40

32:                                               ; preds = %29
  %33 = load ptr, ptr %10, align 8
  %34 = getelementptr inbounds nuw %struct.SortSupportData, ptr %33, i32 0, i32 3
  %35 = load i8, ptr %34, align 1, !range !4, !noundef !5
  %36 = trunc i8 %35 to i1
  br i1 %36, label %37, label %38

37:                                               ; preds = %32
  store i32 1, ptr %11, align 4
  br label %39

38:                                               ; preds = %32
  store i32 -1, ptr %11, align 4
  br label %39

39:                                               ; preds = %38, %37
  br label %62

40:                                               ; preds = %29
  %41 = load ptr, ptr %10, align 8
  %42 = getelementptr inbounds nuw %struct.SortSupportData, ptr %41, i32 0, i32 10
  %43 = load ptr, ptr %42, align 8
  %44 = load i64, ptr %6, align 8
  %45 = load i64, ptr %8, align 8
  %46 = load ptr, ptr %10, align 8
  %47 = call i32 %43(i64 noundef %44, i64 noundef %45, ptr noundef %46)
  store i32 %47, ptr %11, align 4
  %48 = load ptr, ptr %10, align 8
  %49 = getelementptr inbounds nuw %struct.SortSupportData, ptr %48, i32 0, i32 2
  %50 = load i8, ptr %49, align 4, !range !4, !noundef !5
  %51 = trunc i8 %50 to i1
  br i1 %51, label %52, label %61

52:                                               ; preds = %40
  %53 = load i32, ptr %11, align 4
  %54 = icmp slt i32 %53, 0
  br i1 %54, label %55, label %56

55:                                               ; preds = %52
  br label %59

56:                                               ; preds = %52
  %57 = load i32, ptr %11, align 4
  %58 = sub i32 0, %57
  br label %59

59:                                               ; preds = %56, %55
  %60 = phi i32 [ 1, %55 ], [ %58, %56 ]
  store i32 %60, ptr %11, align 4
  br label %61

61:                                               ; preds = %59, %40
  br label %62

62:                                               ; preds = %61, %39
  br label %63

63:                                               ; preds = %62, %28
  %64 = load i32, ptr %11, align 4
  call void @llvm.lifetime.end.p0(i64 4, ptr %11) #6
  ret i32 %64
}

; Function Attrs: nounwind uwtable
define internal i32 @comparetup_heap_tiebreak(ptr noundef %0, ptr noundef %1, ptr noundef %2) #0 {
  %4 = alloca i32, align 4
  %5 = alloca ptr, align 8
  %6 = alloca ptr, align 8
  %7 = alloca ptr, align 8
  %8 = alloca ptr, align 8
  %9 = alloca ptr, align 8
  %10 = alloca %struct.HeapTupleData, align 8
  %11 = alloca %struct.HeapTupleData, align 8
  %12 = alloca ptr, align 8
  %13 = alloca i32, align 4
  %14 = alloca i32, align 4
  %15 = alloca i16, align 2
  %16 = alloca i64, align 8
  %17 = alloca i64, align 8
  %18 = alloca i8, align 1
  %19 = alloca i8, align 1
  %20 = alloca i32, align 4
  store ptr %0, ptr %5, align 8
  store ptr %1, ptr %6, align 8
  store ptr %2, ptr %7, align 8
  call void @llvm.lifetime.start.p0(i64 8, ptr %8) #6
  %21 = load ptr, ptr %7, align 8
  store ptr %21, ptr %8, align 8
  call void @llvm.lifetime.start.p0(i64 8, ptr %9) #6
  %22 = load ptr, ptr %8, align 8
  %23 = getelementptr inbounds nuw %struct.TuplesortPublic, ptr %22, i32 0, i32 11
  %24 = load ptr, ptr %23, align 8
  store ptr %24, ptr %9, align 8
  call void @llvm.lifetime.start.p0(i64 24, ptr %10) #6
  call void @llvm.lifetime.start.p0(i64 24, ptr %11) #6
  call void @llvm.lifetime.start.p0(i64 8, ptr %12) #6
  call void @llvm.lifetime.start.p0(i64 4, ptr %13) #6
  call void @llvm.lifetime.start.p0(i64 4, ptr %14) #6
  call void @llvm.lifetime.start.p0(i64 2, ptr %15) #6
  call void @llvm.lifetime.start.p0(i64 8, ptr %16) #6
  call void @llvm.lifetime.start.p0(i64 8, ptr %17) #6
  call void @llvm.lifetime.start.p0(i64 1, ptr %18) #6
  call void @llvm.lifetime.start.p0(i64 1, ptr %19) #6
  %25 = load ptr, ptr %5, align 8
  %26 = getelementptr inbounds nuw %struct.SortTuple, ptr %25, i32 0, i32 0
  %27 = load ptr, ptr %26, align 8
  %28 = getelementptr inbounds nuw %struct.MinimalTupleData, ptr %27, i32 0, i32 0
  %29 = load i32, ptr %28, align 4
  %30 = zext i32 %29 to i64
  %31 = add i64 %30, 8
  %32 = trunc i64 %31 to i32
  %33 = getelementptr inbounds nuw %struct.HeapTupleData, ptr %10, i32 0, i32 0
  store i32 %32, ptr %33, align 8
  %34 = load ptr, ptr %5, align 8
  %35 = getelementptr inbounds nuw %struct.SortTuple, ptr %34, i32 0, i32 0
  %36 = load ptr, ptr %35, align 8
  %37 = getelementptr inbounds i8, ptr %36, i64 -8
  %38 = getelementptr inbounds nuw %struct.HeapTupleData, ptr %10, i32 0, i32 3
  store ptr %37, ptr %38, align 8
  %39 = load ptr, ptr %6, align 8
  %40 = getelementptr inbounds nuw %struct.SortTuple, ptr %39, i32 0, i32 0
  %41 = load ptr, ptr %40, align 8
  %42 = getelementptr inbounds nuw %struct.MinimalTupleData, ptr %41, i32 0, i32 0
  %43 = load i32, ptr %42, align 4
  %44 = zext i32 %43 to i64
  %45 = add i64 %44, 8
  %46 = trunc i64 %45 to i32
  %47 = getelementptr inbounds nuw %struct.HeapTupleData, ptr %11, i32 0, i32 0
  store i32 %46, ptr %47, align 8
  %48 = load ptr, ptr %6, align 8
  %49 = getelementptr inbounds nuw %struct.SortTuple, ptr %48, i32 0, i32 0
  %50 = load ptr, ptr %49, align 8
  %51 = getelementptr inbounds i8, ptr %50, i64 -8
  %52 = getelementptr inbounds nuw %struct.HeapTupleData, ptr %11, i32 0, i32 3
  store ptr %51, ptr %52, align 8
  %53 = load ptr, ptr %8, align 8
  %54 = getelementptr inbounds nuw %struct.TuplesortPublic, ptr %53, i32 0, i32 15
  %55 = load ptr, ptr %54, align 8
  store ptr %55, ptr %12, align 8
  %56 = load ptr, ptr %9, align 8
  %57 = getelementptr inbounds nuw %struct.SortSupportData, ptr %56, i32 0, i32 8
  %58 = load ptr, ptr %57, align 8
  %59 = icmp ne ptr %58, null
  br i1 %59, label %60, label %85

60:                                               ; preds = %3
  %61 = load ptr, ptr %9, align 8
  %62 = getelementptr inbounds nuw %struct.SortSupportData, ptr %61, i32 0, i32 4
  %63 = load i16, ptr %62, align 2
  store i16 %63, ptr %15, align 2
  %64 = load i16, ptr %15, align 2
  %65 = sext i16 %64 to i32
  %66 = load ptr, ptr %12, align 8
  %67 = call i64 @heap_getattr(ptr noundef %10, i32 noundef %65, ptr noundef %66, ptr noundef %18)
  store i64 %67, ptr %16, align 8
  %68 = load i16, ptr %15, align 2
  %69 = sext i16 %68 to i32
  %70 = load ptr, ptr %12, align 8
  %71 = call i64 @heap_getattr(ptr noundef %11, i32 noundef %69, ptr noundef %70, ptr noundef %19)
  store i64 %71, ptr %17, align 8
  %72 = load i64, ptr %16, align 8
  %73 = load i8, ptr %18, align 1, !range !4, !noundef !5
  %74 = trunc i8 %73 to i1
  %75 = load i64, ptr %17, align 8
  %76 = load i8, ptr %19, align 1, !range !4, !noundef !5
  %77 = trunc i8 %76 to i1
  %78 = load ptr, ptr %9, align 8
  %79 = call i32 @ApplySortAbbrevFullComparator(i64 noundef %72, i1 noundef zeroext %74, i64 noundef %75, i1 noundef zeroext %77, ptr noundef %78)
  store i32 %79, ptr %14, align 4
  %80 = load i32, ptr %14, align 4
  %81 = icmp ne i32 %80, 0
  br i1 %81, label %82, label %84

82:                                               ; preds = %60
  %83 = load i32, ptr %14, align 4
  store i32 %83, ptr %4, align 4
  store i32 1, ptr %20, align 4
  br label %125

84:                                               ; preds = %60
  br label %85

85:                                               ; preds = %84, %3
  %86 = load ptr, ptr %9, align 8
  %87 = getelementptr inbounds nuw %struct.SortSupportData, ptr %86, i32 1
  store ptr %87, ptr %9, align 8
  store i32 1, ptr %13, align 4
  br label %88

88:                                               ; preds = %119, %85
  %89 = load i32, ptr %13, align 4
  %90 = load ptr, ptr %8, align 8
  %91 = getelementptr inbounds nuw %struct.TuplesortPublic, ptr %90, i32 0, i32 10
  %92 = load i32, ptr %91, align 4
  %93 = icmp slt i32 %89, %92
  br i1 %93, label %94, label %124

94:                                               ; preds = %88
  %95 = load ptr, ptr %9, align 8
  %96 = getelementptr inbounds nuw %struct.SortSupportData, ptr %95, i32 0, i32 4
  %97 = load i16, ptr %96, align 2
  store i16 %97, ptr %15, align 2
  %98 = load i16, ptr %15, align 2
  %99 = sext i16 %98 to i32
  %100 = load ptr, ptr %12, align 8
  %101 = call i64 @heap_getattr(ptr noundef %10, i32 noundef %99, ptr noundef %100, ptr noundef %18)
  store i64 %101, ptr %16, align 8
  %102 = load i16, ptr %15, align 2
  %103 = sext i16 %102 to i32
  %104 = load ptr, ptr %12, align 8
  %105 = call i64 @heap_getattr(ptr noundef %11, i32 noundef %103, ptr noundef %104, ptr noundef %19)
  store i64 %105, ptr %17, align 8
  %106 = load i64, ptr %16, align 8
  %107 = load i8, ptr %18, align 1, !range !4, !noundef !5
  %108 = trunc i8 %107 to i1
  %109 = load i64, ptr %17, align 8
  %110 = load i8, ptr %19, align 1, !range !4, !noundef !5
  %111 = trunc i8 %110 to i1
  %112 = load ptr, ptr %9, align 8
  %113 = call i32 @ApplySortComparator(i64 noundef %106, i1 noundef zeroext %108, i64 noundef %109, i1 noundef zeroext %111, ptr noundef %112)
  store i32 %113, ptr %14, align 4
  %114 = load i32, ptr %14, align 4
  %115 = icmp ne i32 %114, 0
  br i1 %115, label %116, label %118

116:                                              ; preds = %94
  %117 = load i32, ptr %14, align 4
  store i32 %117, ptr %4, align 4
  store i32 1, ptr %20, align 4
  br label %125

118:                                              ; preds = %94
  br label %119

119:                                              ; preds = %118
  %120 = load i32, ptr %13, align 4
  %121 = add i32 %120, 1
  store i32 %121, ptr %13, align 4
  %122 = load ptr, ptr %9, align 8
  %123 = getelementptr inbounds nuw %struct.SortSupportData, ptr %122, i32 1
  store ptr %123, ptr %9, align 8
  br label %88, !llvm.loop !9

124:                                              ; preds = %88
  store i32 0, ptr %4, align 4
  store i32 1, ptr %20, align 4
  br label %125

125:                                              ; preds = %124, %116, %82
  call void @llvm.lifetime.end.p0(i64 1, ptr %19) #6
  call void @llvm.lifetime.end.p0(i64 1, ptr %18) #6
  call void @llvm.lifetime.end.p0(i64 8, ptr %17) #6
  call void @llvm.lifetime.end.p0(i64 8, ptr %16) #6
  call void @llvm.lifetime.end.p0(i64 2, ptr %15) #6
  call void @llvm.lifetime.end.p0(i64 4, ptr %14) #6
  call void @llvm.lifetime.end.p0(i64 4, ptr %13) #6
  call void @llvm.lifetime.end.p0(i64 8, ptr %12) #6
  call void @llvm.lifetime.end.p0(i64 24, ptr %11) #6
  call void @llvm.lifetime.end.p0(i64 24, ptr %10) #6
  call void @llvm.lifetime.end.p0(i64 8, ptr %9) #6
  call void @llvm.lifetime.end.p0(i64 8, ptr %8) #6
  %126 = load i32, ptr %4, align 4
  ret i32 %126
}