; Function Attrs: nounwind uwtable
define internal i32 @comparetup_heap_tiebreak(ptr noundef readonly captures(none) %0, ptr noundef readonly captures(none) %1, ptr noundef readonly captures(none) %2) #0 {
  %4 = alloca %struct.HeapTupleData, align 8
  %5 = alloca %struct.HeapTupleData, align 8
  %6 = alloca i8, align 1
  %7 = alloca i8, align 1
  %8 = getelementptr inbounds nuw i8, ptr %2, i64 80
  %9 = load ptr, ptr %8, align 8
  call void @llvm.lifetime.start.p0(i64 24, ptr nonnull %4) #12
  call void @llvm.lifetime.start.p0(i64 24, ptr nonnull %5) #12
  call void @llvm.lifetime.start.p0(i64 1, ptr nonnull %6) #12
  call void @llvm.lifetime.start.p0(i64 1, ptr nonnull %7) #12
  %10 = load ptr, ptr %0, align 8
  %11 = load i32, ptr %10, align 4
  %12 = add i32 %11, 8
  store i32 %12, ptr %4, align 8
  %13 = getelementptr inbounds i8, ptr %10, i64 -8
  %14 = getelementptr inbounds nuw i8, ptr %4, i64 16
  store ptr %13, ptr %14, align 8
  %15 = load ptr, ptr %1, align 8
  %16 = load i32, ptr %15, align 4
  %17 = add i32 %16, 8
  store i32 %17, ptr %5, align 8
  %18 = getelementptr inbounds i8, ptr %15, i64 -8
  %19 = getelementptr inbounds nuw i8, ptr %5, i64 16
  store ptr %18, ptr %19, align 8
  %20 = getelementptr inbounds nuw i8, ptr %2, i64 104
  %21 = load ptr, ptr %20, align 8
  %22 = getelementptr inbounds nuw i8, ptr %9, i64 40
  %23 = load ptr, ptr %22, align 8
  %.not = icmp eq ptr %23, null
  br i1 %.not, label %ApplySortAbbrevFullComparator.exit.thread44, label %24

24:                                               ; preds = %3
  %25 = getelementptr inbounds nuw i8, ptr %9, i64 14
  %26 = load i16, ptr %25, align 2
  %27 = sext i16 %26 to i32
  %28 = call fastcc i64 @heap_getattr(ptr noundef nonnull %4, i32 noundef %27, ptr noundef %21, ptr noundef nonnull %6)
  %29 = call fastcc i64 @heap_getattr(ptr noundef nonnull %5, i32 noundef %27, ptr noundef %21, ptr noundef nonnull %7)
  %30 = load i8, ptr %6, align 1, !range !4, !noundef !5
  %31 = trunc nuw i8 %30 to i1
  %32 = load i8, ptr %7, align 1, !range !4, !noundef !5
  %33 = trunc nuw i8 %32 to i1
  br i1 %31, label %34, label %39

34:                                               ; preds = %24
  br i1 %33, label %ApplySortAbbrevFullComparator.exit.thread44, label %35

35:                                               ; preds = %34
  %36 = getelementptr inbounds nuw i8, ptr %9, i64 13
  %37 = load i8, ptr %36, align 1, !range !4, !noundef !5
  %38 = trunc nuw i8 %37 to i1
  %..i = select i1 %38, i32 -1, i32 1
  br label %ApplySortAbbrevFullComparator.exit.thread

39:                                               ; preds = %24
  br i1 %33, label %40, label %44

40:                                               ; preds = %39
  %41 = getelementptr inbounds nuw i8, ptr %9, i64 13
  %42 = load i8, ptr %41, align 1, !range !4, !noundef !5
  %43 = trunc nuw i8 %42 to i1
  %.12.i = select i1 %43, i32 1, i32 -1
  br label %ApplySortAbbrevFullComparator.exit.thread

44:                                               ; preds = %39
  %45 = getelementptr inbounds nuw i8, ptr %9, i64 56
  %46 = load ptr, ptr %45, align 8
  %47 = call i32 %46(i64 noundef %28, i64 noundef %29, ptr noundef nonnull %9) #12
  %48 = getelementptr inbounds nuw i8, ptr %9, i64 12
  %49 = load i8, ptr %48, align 4, !range !4, !noundef !5
  %50 = trunc nuw i8 %49 to i1
  br i1 %50, label %51, label %ApplySortAbbrevFullComparator.exit

51:                                               ; preds = %44
  %52 = icmp slt i32 %47, 0
  %53 = sub nsw i32 0, %47
  br i1 %52, label %ApplySortAbbrevFullComparator.exit.thread, label %ApplySortAbbrevFullComparator.exit

ApplySortAbbrevFullComparator.exit:               ; preds = %51, %44
  %.0.i = phi i32 [ %53, %51 ], [ %47, %44 ]
  %.not37 = icmp eq i32 %.0.i, 0
  br i1 %.not37, label %ApplySortAbbrevFullComparator.exit.thread44, label %ApplySortAbbrevFullComparator.exit.thread

ApplySortAbbrevFullComparator.exit.thread44:      ; preds = %34, %ApplySortAbbrevFullComparator.exit, %3
  %54 = getelementptr inbounds nuw i8, ptr %2, i64 76
  %55 = load i32, ptr %54, align 4
  %56 = icmp sgt i32 %55, 1
  br i1 %56, label %.lr.ph, label %ApplySortAbbrevFullComparator.exit.thread

.lr.ph:                                           ; preds = %ApplySortAbbrevFullComparator.exit.thread44, %ApplySortComparator.exit.thread50
  %.057 = phi i32 [ %86, %ApplySortComparator.exit.thread50 ], [ 1, %ApplySortAbbrevFullComparator.exit.thread44 ]
  %.pn56 = phi ptr [ %.03458, %ApplySortComparator.exit.thread50 ], [ %9, %ApplySortAbbrevFullComparator.exit.thread44 ]
  %.03458 = getelementptr inbounds nuw i8, ptr %.pn56, i64 64
  %57 = getelementptr inbounds nuw i8, ptr %.pn56, i64 78
  %58 = load i16, ptr %57, align 2
  %59 = sext i16 %58 to i32
  %60 = call fastcc i64 @heap_getattr(ptr noundef nonnull %4, i32 noundef %59, ptr noundef %21, ptr noundef nonnull %6)
  %61 = call fastcc i64 @heap_getattr(ptr noundef nonnull %5, i32 noundef %59, ptr noundef %21, ptr noundef nonnull %7)
  %62 = load i8, ptr %6, align 1, !range !4, !noundef !5
  %63 = trunc nuw i8 %62 to i1
  %64 = load i8, ptr %7, align 1, !range !4, !noundef !5
  %65 = trunc nuw i8 %64 to i1
  br i1 %63, label %66, label %71

66:                                               ; preds = %.lr.ph
  br i1 %65, label %ApplySortComparator.exit.thread50, label %67

67:                                               ; preds = %66
  %68 = getelementptr inbounds nuw i8, ptr %.pn56, i64 77
  %69 = load i8, ptr %68, align 1, !range !4, !noundef !5
  %70 = trunc nuw i8 %69 to i1
  %..i41 = select i1 %70, i32 -1, i32 1
  br label %ApplySortAbbrevFullComparator.exit.thread

71:                                               ; preds = %.lr.ph
  br i1 %65, label %72, label %76

72:                                               ; preds = %71
  %73 = getelementptr inbounds nuw i8, ptr %.pn56, i64 77
  %74 = load i8, ptr %73, align 1, !range !4, !noundef !5
  %75 = trunc nuw i8 %74 to i1
  %.12.i40 = select i1 %75, i32 1, i32 -1
  br label %ApplySortAbbrevFullComparator.exit.thread

76:                                               ; preds = %71
  %77 = getelementptr inbounds nuw i8, ptr %.pn56, i64 88
  %78 = load ptr, ptr %77, align 8
  %79 = call i32 %78(i64 noundef %60, i64 noundef %61, ptr noundef nonnull %.03458) #12
  %80 = getelementptr inbounds nuw i8, ptr %.pn56, i64 76
  %81 = load i8, ptr %80, align 4, !range !4, !noundef !5
  %82 = trunc nuw i8 %81 to i1
  br i1 %82, label %83, label %ApplySortComparator.exit

83:                                               ; preds = %76
  %84 = icmp slt i32 %79, 0
  %85 = sub nsw i32 0, %79
  br i1 %84, label %ApplySortAbbrevFullComparator.exit.thread, label %ApplySortComparator.exit

ApplySortComparator.exit:                         ; preds = %83, %76
  %.0.i39 = phi i32 [ %85, %83 ], [ %79, %76 ]
  %.not38 = icmp eq i32 %.0.i39, 0
  br i1 %.not38, label %ApplySortComparator.exit.thread50, label %ApplySortAbbrevFullComparator.exit.thread

ApplySortComparator.exit.thread50:                ; preds = %66, %ApplySortComparator.exit
  %86 = add nuw nsw i32 %.057, 1
  %87 = load i32, ptr %54, align 4
  %88 = icmp slt i32 %86, %87
  br i1 %88, label %.lr.ph, label %ApplySortAbbrevFullComparator.exit.thread, !llvm.loop !9

ApplySortAbbrevFullComparator.exit.thread:        ; preds = %ApplySortComparator.exit, %ApplySortComparator.exit.thread50, %83, %ApplySortAbbrevFullComparator.exit.thread44, %72, %67, %51, %40, %35, %ApplySortAbbrevFullComparator.exit
  %.033 = phi i32 [ %.0.i, %ApplySortAbbrevFullComparator.exit ], [ %.12.i, %40 ], [ %..i, %35 ], [ 1, %51 ], [ %.12.i40, %72 ], [ %..i41, %67 ], [ 0, %ApplySortAbbrevFullComparator.exit.thread44 ], [ %.0.i39, %ApplySortComparator.exit ], [ 0, %ApplySortComparator.exit.thread50 ], [ 1, %83 ]
  call void @llvm.lifetime.end.p0(i64 1, ptr nonnull %7) #12
  call void @llvm.lifetime.end.p0(i64 1, ptr nonnull %6) #12
  call void @llvm.lifetime.end.p0(i64 24, ptr nonnull %5) #12
  call void @llvm.lifetime.end.p0(i64 24, ptr nonnull %4) #12
  ret i32 %.033
}